; Function Attrs: nounwind uwtable
define internal fastcc i32 @hlsenc_io_open(ptr noundef %0, ptr noundef %1, ptr noundef %2, ptr noundef nonnull %3) unnamed_addr #0 {
  %5 = getelementptr inbounds nuw i8, ptr %0, i64 24
  %6 = load ptr, ptr %5, align 8, !tbaa !4
  %.not = icmp eq ptr %2, null
  br i1 %.not, label %.thread, label %7

7:                                                ; preds = %4
  %8 = tail call i32 @ff_is_http_proto(ptr noundef nonnull %2) #17
  %9 = icmp ne i32 %8, 0
  %10 = load ptr, ptr %1, align 8, !tbaa !178
  %11 = icmp ne ptr %10, null
  %or.cond = select i1 %11, i1 %9, i1 false
  br i1 %or.cond, label %12, label %.thread

12:                                               ; preds = %7
  %13 = getelementptr inbounds nuw i8, ptr %6, i64 8564
  %14 = load i32, ptr %13, align 4, !tbaa !174
  %.not22 = icmp eq i32 %14, 0
  br i1 %.not22, label %.thread, label %18

.thread:                                          ; preds = %4, %12, %7
  %15 = getelementptr inbounds nuw i8, ptr %0, i64 448
  %16 = load ptr, ptr %15, align 8, !tbaa !166
  %17 = tail call i32 %16(ptr noundef nonnull %0, ptr noundef nonnull %1, ptr noundef %2, i32 noundef 2, ptr noundef nonnull %3) #17
  br label %26

18:                                               ; preds = %12
  %19 = tail call ptr @ffio_geturlcontext(ptr noundef nonnull %10) #17
  %.not23 = icmp eq ptr %19, null
  br i1 %.not23, label %20, label %21

20:                                               ; preds = %18
  tail call void (ptr, i32, ptr, ...) @av_log(ptr noundef null, i32 noundef 0, ptr noundef nonnull @.str.154, ptr noundef nonnull @.str.155, ptr noundef nonnull @.str.156, i32 noundef 302) #17
  tail call void @abort() #20
  unreachable

21:                                               ; preds = %18
  %22 = tail call i32 @ff_http_do_new_request(ptr noundef nonnull %19, ptr noundef nonnull %2) #17
  %23 = icmp slt i32 %22, 0
  br i1 %23, label %24, label %26

24:                                               ; preds = %21
  %25 = tail call i32 @ff_format_io_close(ptr noundef nonnull %0, ptr noundef nonnull %1) #17
  br label %26

26:                                               ; preds = %21, %24, %.thread
  %.0 = phi i32 [ %17, %.thread ], [ %22, %24 ], [ %22, %21 ]
  ret i32 %.0
}